(lp0
(dp1
S'\x80'
p2
I54
sS'\x93'
p3
I55
sS'\n'
p4
I2
sS'<pad>'
p5
I0
sS'\xa9'
p6
I56
sS' '
p7
I3
sS'"'
p8
I4
sS'%'
p9
I5
sS"'"
p10
I6
sS')'
p11
I8
sS'('
p12
I7
sS'-'
p13
I10
sS','
p14
I9
sS'/'
p15
I12
sS'.'
p16
I11
sS'1'
p17
I14
sS'0'
p18
I13
sS'3'
p19
I16
sS'2'
p20
I15
sS'5'
p21
I18
sS'4'
p22
I17
sS'7'
p23
I20
sS'6'
p24
I19
sS'9'
p25
I22
sS'8'
p26
I21
sS';'
p27
I24
sS':'
p28
I23
sS'?'
p29
I25
sS'\xc3'
p30
I57
sS'\xe2'
p31
I58
sS'['
p32
I26
sS']'
p33
I27
sS'a'
p34
I28
sS'c'
p35
I30
sS'b'
p36
I29
sS'e'
p37
I32
sS'd'
p38
I31
sS'g'
p39
I34
sS'f'
p40
I33
sS'i'
p41
I36
sS'h'
p42
I35
sS'k'
p43
I38
sS'j'
p44
I37
sS'm'
p45
I40
sS'l'
p46
I39
sS'o'
p47
I42
sS'n'
p48
I41
sS'q'
p49
I44
sS'p'
p50
I43
sS's'
p51
I46
sS'r'
p52
I45
sS'u'
p53
I48
sS't'
p54
I47
sS'w'
p55
I50
sS'v'
p56
I49
sS'y'
p57
I52
sS'x'
p58
I51
sS'z'
p59
I53
sS'<unk>'
p60
I1
sa(dp61
I0
g5
sI1
g60
sI2
g4
sI3
g7
sI4
g8
sI5
g9
sI6
g10
sI7
g12
sI8
g11
sI9
g14
sI10
g13
sI11
g16
sI12
g15
sI13
g18
sI14
g17
sI15
g20
sI16
g19
sI17
g22
sI18
g21
sI19
g24
sI20
g23
sI21
g26
sI22
g25
sI23
g28
sI24
g27
sI25
g29
sI26
g32
sI27
g33
sI28
g34
sI29
g36
sI30
g35
sI31
g38
sI32
g37
sI33
g40
sI34
g39
sI35
g42
sI36
g41
sI37
g44
sI38
g43
sI39
g46
sI40
g45
sI41
g48
sI42
g47
sI43
g50
sI44
g49
sI45
g52
sI46
g51
sI47
g54
sI48
g53
sI49
g56
sI50
g55
sI51
g58
sI52
g57
sI53
g59
sI54
g2
sI55
g3
sI56
g6
sI57
g30
sI58
g31
saI59
a.